target datalayout = "e-m:e-p270:32:32-p271:32:32-p272:64:64-i64:64-i128:128-f80:128-n8:16:32:64-S128"
target triple = "x86_64-pc-linux-gnu"

%struct.wtap_reader = type { i32, i64, i64, i32, %struct.wtap_reader_buf, %struct.wtap_reader_buf, i8, i64, i64, i32, i32, i8, i64, i8, i32, ptr, %struct.z_stream_s, i8, ptr, ptr, %struct.LZ4F_frameInfo_t, [19 x i8], ptr, ptr }
%struct.wtap_reader_buf = type { ptr, ptr, i32 }
%struct.z_stream_s = type { ptr, i32, i64, ptr, i32, i64, ptr, ptr, ptr, ptr, ptr, i32, i64, i64 }
%struct.LZ4F_frameInfo_t = type { i32, i32, i32, i32, i64, i32, i32 }

; Function Attrs: nounwind null_pointer_is_valid sspstrong uwtable
define i32 @file_eof(ptr noundef %0) #3 {
  %2 = alloca ptr, align 8
  store ptr %0, ptr %2, align 8
  %3 = load ptr, ptr %2, align 8
  %4 = getelementptr inbounds nuw %struct.wtap_reader, ptr %3, i32 0, i32 6
  %5 = load i8, ptr %4, align 8, !range !9, !noundef !10
  %6 = trunc i8 %5 to i1
  br i1 %6, label %7, label %19

7:                                                ; preds = %1
  %8 = load ptr, ptr %2, align 8
  %9 = getelementptr inbounds nuw %struct.wtap_reader, ptr %8, i32 0, i32 4
  %10 = getelementptr inbounds nuw %struct.wtap_reader_buf, ptr %9, i32 0, i32 2
  %11 = load i32, ptr %10, align 8
  %12 = icmp eq i32 %11, 0
  br i1 %12, label %13, label %19

13:                                               ; preds = %7
  %14 = load ptr, ptr %2, align 8
  %15 = getelementptr inbounds nuw %struct.wtap_reader, ptr %14, i32 0, i32 5
  %16 = getelementptr inbounds nuw %struct.wtap_reader_buf, ptr %15, i32 0, i32 2
  %17 = load i32, ptr %16, align 8
  %18 = icmp eq i32 %17, 0
  br label %19

19:                                               ; preds = %13, %7, %1
  %20 = phi i1 [ false, %7 ], [ false, %1 ], [ %18, %13 ]
  %21 = zext i1 %20 to i32
  ret i32 %21
}